target datalayout = "e-m:e-p270:32:32-p271:32:32-p272:64:64-i64:64-i128:128-f80:128-n8:16:32:64-S128"
target triple = "x86_64-pc-linux-gnu"

; Function Attrs: alwaysinline nounwind willreturn memory(none) uwtable
define internal i32 @av_clip_uintp2_c(i32 noundef %0, i32 noundef %1) #6 {
  %3 = alloca i32, align 4
  %4 = alloca i32, align 4
  %5 = alloca i32, align 4
  store i32 %0, ptr %4, align 4, !tbaa !9
  store i32 %1, ptr %5, align 4, !tbaa !9
  %6 = load i32, ptr %4, align 4, !tbaa !9
  %7 = load i32, ptr %5, align 4, !tbaa !9
  %8 = shl i32 1, %7
  %9 = sub i32 %8, 1
  %10 = xor i32 %9, -1
  %11 = and i32 %6, %10
  %12 = icmp ne i32 %11, 0
  br i1 %12, label %13, label %21

13:                                               ; preds = %2
  %14 = load i32, ptr %4, align 4, !tbaa !9
  %15 = xor i32 %14, -1
  %16 = ashr i32 %15, 31
  %17 = load i32, ptr %5, align 4, !tbaa !9
  %18 = shl i32 1, %17
  %19 = sub i32 %18, 1
  %20 = and i32 %16, %19
  store i32 %20, ptr %3, align 4
  br label %23

21:                                               ; preds = %2
  %22 = load i32, ptr %4, align 4, !tbaa !9
  store i32 %22, ptr %3, align 4
  br label %23

23:                                               ; preds = %21, %13
  %24 = load i32, ptr %3, align 4
  ret i32 %24
}

; Function Attrs: nounwind uwtable
define internal void @weight_h264_pixels16_10_c(ptr noundef %0, i64 noundef %1, i32 noundef %2, i32 noundef %3, i32 noundef %4, i32 noundef %5) #1 {
  %7 = alloca ptr, align 8
  %8 = alloca i64, align 8
  %9 = alloca i32, align 4
  %10 = alloca i32, align 4
  %11 = alloca i32, align 4
  %12 = alloca i32, align 4
  %13 = alloca i32, align 4
  %14 = alloca ptr, align 8
  store ptr %0, ptr %7, align 8, !tbaa !39
  store i64 %1, ptr %8, align 8, !tbaa !53
  store i32 %2, ptr %9, align 4, !tbaa !9
  store i32 %3, ptr %10, align 4, !tbaa !9
  store i32 %4, ptr %11, align 4, !tbaa !9
  store i32 %5, ptr %12, align 4, !tbaa !9
  call void @llvm.lifetime.start.p0(i64 4, ptr %13) #9
  call void @llvm.lifetime.start.p0(i64 8, ptr %14) #9
  %15 = load ptr, ptr %7, align 8, !tbaa !39
  store ptr %15, ptr %14, align 8, !tbaa !41
  %16 = load i64, ptr %8, align 8, !tbaa !53
  %17 = ashr i64 %16, 1
  store i64 %17, ptr %8, align 8, !tbaa !53
  %18 = load i32, ptr %12, align 4, !tbaa !9
  %19 = load i32, ptr %10, align 4, !tbaa !9
  %20 = add nsw i32 %19, 2
  %21 = shl i32 %18, %20
  store i32 %21, ptr %12, align 4, !tbaa !9
  %22 = load i32, ptr %10, align 4, !tbaa !9
  %23 = icmp ne i32 %22, 0
  br i1 %23, label %24, label %30

24:                                               ; preds = %6
  %25 = load i32, ptr %10, align 4, !tbaa !9
  %26 = sub nsw i32 %25, 1
  %27 = shl i32 1, %26
  %28 = load i32, ptr %12, align 4, !tbaa !9
  %29 = add nsw i32 %28, %27
  store i32 %29, ptr %12, align 4, !tbaa !9
  br label %30

30:                                               ; preds = %24, %6
  store i32 0, ptr %13, align 4, !tbaa !9
  br label %31

31:                                               ; preds = %260, %30
  %32 = load i32, ptr %13, align 4, !tbaa !9
  %33 = load i32, ptr %9, align 4, !tbaa !9
  %34 = icmp slt i32 %32, %33
  br i1 %34, label %35, label %266

35:                                               ; preds = %31
  %36 = load ptr, ptr %14, align 8, !tbaa !41
  %37 = getelementptr inbounds i16, ptr %36, i64 0
  %38 = load i16, ptr %37, align 2, !tbaa !45
  %39 = zext i16 %38 to i32
  %40 = load i32, ptr %11, align 4, !tbaa !9
  %41 = mul nsw i32 %39, %40
  %42 = load i32, ptr %12, align 4, !tbaa !9
  %43 = add nsw i32 %41, %42
  %44 = load i32, ptr %10, align 4, !tbaa !9
  %45 = ashr i32 %43, %44
  %46 = call i32 @av_clip_uintp2_c(i32 noundef %45, i32 noundef 10) #10
  %47 = trunc i32 %46 to i16
  %48 = load ptr, ptr %14, align 8, !tbaa !41
  %49 = getelementptr inbounds i16, ptr %48, i64 0
  store i16 %47, ptr %49, align 2, !tbaa !45
  %50 = load ptr, ptr %14, align 8, !tbaa !41
  %51 = getelementptr inbounds i16, ptr %50, i64 1
  %52 = load i16, ptr %51, align 2, !tbaa !45
  %53 = zext i16 %52 to i32
  %54 = load i32, ptr %11, align 4, !tbaa !9
  %55 = mul nsw i32 %53, %54
  %56 = load i32, ptr %12, align 4, !tbaa !9
  %57 = add nsw i32 %55, %56
  %58 = load i32, ptr %10, align 4, !tbaa !9
  %59 = ashr i32 %57, %58
  %60 = call i32 @av_clip_uintp2_c(i32 noundef %59, i32 noundef 10) #10
  %61 = trunc i32 %60 to i16
  %62 = load ptr, ptr %14, align 8, !tbaa !41
  %63 = getelementptr inbounds i16, ptr %62, i64 1
  store i16 %61, ptr %63, align 2, !tbaa !45
  %64 = load ptr, ptr %14, align 8, !tbaa !41
  %65 = getelementptr inbounds i16, ptr %64, i64 2
  %66 = load i16, ptr %65, align 2, !tbaa !45
  %67 = zext i16 %66 to i32
  %68 = load i32, ptr %11, align 4, !tbaa !9
  %69 = mul nsw i32 %67, %68
  %70 = load i32, ptr %12, align 4, !tbaa !9
  %71 = add nsw i32 %69, %70
  %72 = load i32, ptr %10, align 4, !tbaa !9
  %73 = ashr i32 %71, %72
  %74 = call i32 @av_clip_uintp2_c(i32 noundef %73, i32 noundef 10) #10
  %75 = trunc i32 %74 to i16
  %76 = load ptr, ptr %14, align 8, !tbaa !41
  %77 = getelementptr inbounds i16, ptr %76, i64 2
  store i16 %75, ptr %77, align 2, !tbaa !45
  %78 = load ptr, ptr %14, align 8, !tbaa !41
  %79 = getelementptr inbounds i16, ptr %78, i64 3
  %80 = load i16, ptr %79, align 2, !tbaa !45
  %81 = zext i16 %80 to i32
  %82 = load i32, ptr %11, align 4, !tbaa !9
  %83 = mul nsw i32 %81, %82
  %84 = load i32, ptr %12, align 4, !tbaa !9
  %85 = add nsw i32 %83, %84
  %86 = load i32, ptr %10, align 4, !tbaa !9
  %87 = ashr i32 %85, %86
  %88 = call i32 @av_clip_uintp2_c(i32 noundef %87, i32 noundef 10) #10
  %89 = trunc i32 %88 to i16
  %90 = load ptr, ptr %14, align 8, !tbaa !41
  %91 = getelementptr inbounds i16, ptr %90, i64 3
  store i16 %89, ptr %91, align 2, !tbaa !45
  %92 = load ptr, ptr %14, align 8, !tbaa !41
  %93 = getelementptr inbounds i16, ptr %92, i64 4
  %94 = load i16, ptr %93, align 2, !tbaa !45
  %95 = zext i16 %94 to i32
  %96 = load i32, ptr %11, align 4, !tbaa !9
  %97 = mul nsw i32 %95, %96
  %98 = load i32, ptr %12, align 4, !tbaa !9
  %99 = add nsw i32 %97, %98
  %100 = load i32, ptr %10, align 4, !tbaa !9
  %101 = ashr i32 %99, %100
  %102 = call i32 @av_clip_uintp2_c(i32 noundef %101, i32 noundef 10) #10
  %103 = trunc i32 %102 to i16
  %104 = load ptr, ptr %14, align 8, !tbaa !41
  %105 = getelementptr inbounds i16, ptr %104, i64 4
  store i16 %103, ptr %105, align 2, !tbaa !45
  %106 = load ptr, ptr %14, align 8, !tbaa !41
  %107 = getelementptr inbounds i16, ptr %106, i64 5
  %108 = load i16, ptr %107, align 2, !tbaa !45
  %109 = zext i16 %108 to i32
  %110 = load i32, ptr %11, align 4, !tbaa !9
  %111 = mul nsw i32 %109, %110
  %112 = load i32, ptr %12, align 4, !tbaa !9
  %113 = add nsw i32 %111, %112
  %114 = load i32, ptr %10, align 4, !tbaa !9
  %115 = ashr i32 %113, %114
  %116 = call i32 @av_clip_uintp2_c(i32 noundef %115, i32 noundef 10) #10
  %117 = trunc i32 %116 to i16
  %118 = load ptr, ptr %14, align 8, !tbaa !41
  %119 = getelementptr inbounds i16, ptr %118, i64 5
  store i16 %117, ptr %119, align 2, !tbaa !45
  %120 = load ptr, ptr %14, align 8, !tbaa !41
  %121 = getelementptr inbounds i16, ptr %120, i64 6
  %122 = load i16, ptr %121, align 2, !tbaa !45
  %123 = zext i16 %122 to i32
  %124 = load i32, ptr %11, align 4, !tbaa !9
  %125 = mul nsw i32 %123, %124
  %126 = load i32, ptr %12, align 4, !tbaa !9
  %127 = add nsw i32 %125, %126
  %128 = load i32, ptr %10, align 4, !tbaa !9
  %129 = ashr i32 %127, %128
  %130 = call i32 @av_clip_uintp2_c(i32 noundef %129, i32 noundef 10) #10
  %131 = trunc i32 %130 to i16
  %132 = load ptr, ptr %14, align 8, !tbaa !41
  %133 = getelementptr inbounds i16, ptr %132, i64 6
  store i16 %131, ptr %133, align 2, !tbaa !45
  %134 = load ptr, ptr %14, align 8, !tbaa !41
  %135 = getelementptr inbounds i16, ptr %134, i64 7
  %136 = load i16, ptr %135, align 2, !tbaa !45
  %137 = zext i16 %136 to i32
  %138 = load i32, ptr %11, align 4, !tbaa !9
  %139 = mul nsw i32 %137, %138
  %140 = load i32, ptr %12, align 4, !tbaa !9
  %141 = add nsw i32 %139, %140
  %142 = load i32, ptr %10, align 4, !tbaa !9
  %143 = ashr i32 %141, %142
  %144 = call i32 @av_clip_uintp2_c(i32 noundef %143, i32 noundef 10) #10
  %145 = trunc i32 %144 to i16
  %146 = load ptr, ptr %14, align 8, !tbaa !41
  %147 = getelementptr inbounds i16, ptr %146, i64 7
  store i16 %145, ptr %147, align 2, !tbaa !45
  %148 = load ptr, ptr %14, align 8, !tbaa !41
  %149 = getelementptr inbounds i16, ptr %148, i64 8
  %150 = load i16, ptr %149, align 2, !tbaa !45
  %151 = zext i16 %150 to i32
  %152 = load i32, ptr %11, align 4, !tbaa !9
  %153 = mul nsw i32 %151, %152
  %154 = load i32, ptr %12, align 4, !tbaa !9
  %155 = add nsw i32 %153, %154
  %156 = load i32, ptr %10, align 4, !tbaa !9
  %157 = ashr i32 %155, %156
  %158 = call i32 @av_clip_uintp2_c(i32 noundef %157, i32 noundef 10) #10
  %159 = trunc i32 %158 to i16
  %160 = load ptr, ptr %14, align 8, !tbaa !41
  %161 = getelementptr inbounds i16, ptr %160, i64 8
  store i16 %159, ptr %161, align 2, !tbaa !45
  %162 = load ptr, ptr %14, align 8, !tbaa !41
  %163 = getelementptr inbounds i16, ptr %162, i64 9
  %164 = load i16, ptr %163, align 2, !tbaa !45
  %165 = zext i16 %164 to i32
  %166 = load i32, ptr %11, align 4, !tbaa !9
  %167 = mul nsw i32 %165, %166
  %168 = load i32, ptr %12, align 4, !tbaa !9
  %169 = add nsw i32 %167, %168
  %170 = load i32, ptr %10, align 4, !tbaa !9
  %171 = ashr i32 %169, %170
  %172 = call i32 @av_clip_uintp2_c(i32 noundef %171, i32 noundef 10) #10
  %173 = trunc i32 %172 to i16
  %174 = load ptr, ptr %14, align 8, !tbaa !41
  %175 = getelementptr inbounds i16, ptr %174, i64 9
  store i16 %173, ptr %175, align 2, !tbaa !45
  %176 = load ptr, ptr %14, align 8, !tbaa !41
  %177 = getelementptr inbounds i16, ptr %176, i64 10
  %178 = load i16, ptr %177, align 2, !tbaa !45
  %179 = zext i16 %178 to i32
  %180 = load i32, ptr %11, align 4, !tbaa !9
  %181 = mul nsw i32 %179, %180
  %182 = load i32, ptr %12, align 4, !tbaa !9
  %183 = add nsw i32 %181, %182
  %184 = load i32, ptr %10, align 4, !tbaa !9
  %185 = ashr i32 %183, %184
  %186 = call i32 @av_clip_uintp2_c(i32 noundef %185, i32 noundef 10) #10
  %187 = trunc i32 %186 to i16
  %188 = load ptr, ptr %14, align 8, !tbaa !41
  %189 = getelementptr inbounds i16, ptr %188, i64 10
  store i16 %187, ptr %189, align 2, !tbaa !45
  %190 = load ptr, ptr %14, align 8, !tbaa !41
  %191 = getelementptr inbounds i16, ptr %190, i64 11
  %192 = load i16, ptr %191, align 2, !tbaa !45
  %193 = zext i16 %192 to i32
  %194 = load i32, ptr %11, align 4, !tbaa !9
  %195 = mul nsw i32 %193, %194
  %196 = load i32, ptr %12, align 4, !tbaa !9
  %197 = add nsw i32 %195, %196
  %198 = load i32, ptr %10, align 4, !tbaa !9
  %199 = ashr i32 %197, %198
  %200 = call i32 @av_clip_uintp2_c(i32 noundef %199, i32 noundef 10) #10
  %201 = trunc i32 %200 to i16
  %202 = load ptr, ptr %14, align 8, !tbaa !41
  %203 = getelementptr inbounds i16, ptr %202, i64 11
  store i16 %201, ptr %203, align 2, !tbaa !45
  %204 = load ptr, ptr %14, align 8, !tbaa !41
  %205 = getelementptr inbounds i16, ptr %204, i64 12
  %206 = load i16, ptr %205, align 2, !tbaa !45
  %207 = zext i16 %206 to i32
  %208 = load i32, ptr %11, align 4, !tbaa !9
  %209 = mul nsw i32 %207, %208
  %210 = load i32, ptr %12, align 4, !tbaa !9
  %211 = add nsw i32 %209, %210
  %212 = load i32, ptr %10, align 4, !tbaa !9
  %213 = ashr i32 %211, %212
  %214 = call i32 @av_clip_uintp2_c(i32 noundef %213, i32 noundef 10) #10
  %215 = trunc i32 %214 to i16
  %216 = load ptr, ptr %14, align 8, !tbaa !41
  %217 = getelementptr inbounds i16, ptr %216, i64 12
  store i16 %215, ptr %217, align 2, !tbaa !45
  %218 = load ptr, ptr %14, align 8, !tbaa !41
  %219 = getelementptr inbounds i16, ptr %218, i64 13
  %220 = load i16, ptr %219, align 2, !tbaa !45
  %221 = zext i16 %220 to i32
  %222 = load i32, ptr %11, align 4, !tbaa !9
  %223 = mul nsw i32 %221, %222
  %224 = load i32, ptr %12, align 4, !tbaa !9
  %225 = add nsw i32 %223, %224
  %226 = load i32, ptr %10, align 4, !tbaa !9
  %227 = ashr i32 %225, %226
  %228 = call i32 @av_clip_uintp2_c(i32 noundef %227, i32 noundef 10) #10
  %229 = trunc i32 %228 to i16
  %230 = load ptr, ptr %14, align 8, !tbaa !41
  %231 = getelementptr inbounds i16, ptr %230, i64 13
  store i16 %229, ptr %231, align 2, !tbaa !45
  %232 = load ptr, ptr %14, align 8, !tbaa !41
  %233 = getelementptr inbounds i16, ptr %232, i64 14
  %234 = load i16, ptr %233, align 2, !tbaa !45
  %235 = zext i16 %234 to i32
  %236 = load i32, ptr %11, align 4, !tbaa !9
  %237 = mul nsw i32 %235, %236
  %238 = load i32, ptr %12, align 4, !tbaa !9
  %239 = add nsw i32 %237, %238
  %240 = load i32, ptr %10, align 4, !tbaa !9
  %241 = ashr i32 %239, %240
  %242 = call i32 @av_clip_uintp2_c(i32 noundef %241, i32 noundef 10) #10
  %243 = trunc i32 %242 to i16
  %244 = load ptr, ptr %14, align 8, !tbaa !41
  %245 = getelementptr inbounds i16, ptr %244, i64 14
  store i16 %243, ptr %245, align 2, !tbaa !45
  %246 = load ptr, ptr %14, align 8, !tbaa !41
  %247 = getelementptr inbounds i16, ptr %246, i64 15
  %248 = load i16, ptr %247, align 2, !tbaa !45
  %249 = zext i16 %248 to i32
  %250 = load i32, ptr %11, align 4, !tbaa !9
  %251 = mul nsw i32 %249, %250
  %252 = load i32, ptr %12, align 4, !tbaa !9
  %253 = add nsw i32 %251, %252
  %254 = load i32, ptr %10, align 4, !tbaa !9
  %255 = ashr i32 %253, %254
  %256 = call i32 @av_clip_uintp2_c(i32 noundef %255, i32 noundef 10) #10
  %257 = trunc i32 %256 to i16
  %258 = load ptr, ptr %14, align 8, !tbaa !41
  %259 = getelementptr inbounds i16, ptr %258, i64 15
  store i16 %257, ptr %259, align 2, !tbaa !45
  br label %260

260:                                              ; preds = %35
  %261 = load i32, ptr %13, align 4, !tbaa !9
  %262 = add nsw i32 %261, 1
  store i32 %262, ptr %13, align 4, !tbaa !9
  %263 = load i64, ptr %8, align 8, !tbaa !53
  %264 = load ptr, ptr %14, align 8, !tbaa !41
  %265 = getelementptr inbounds i16, ptr %264, i64 %263
  store ptr %265, ptr %14, align 8, !tbaa !41
  br label %31, !llvm.loop !63

266:                                              ; preds = %31
  call void @llvm.lifetime.end.p0(i64 8, ptr %14) #9
  call void @llvm.lifetime.end.p0(i64 4, ptr %13) #9
  ret void
}