; Function Attrs: nofree norecurse nosync nounwind memory(argmem: readwrite) uwtable
define internal void @weight_h264_pixels16_10_c(ptr noundef captures(none) %0, i64 noundef %1, i32 noundef %2, i32 noundef %3, i32 noundef %4, i32 noundef %5) #1 {
  %7 = ashr i64 %1, 1
  %8 = add nsw i32 %3, 2
  %9 = shl i32 %5, %8
  %.not = icmp eq i32 %3, 0
  %10 = add nsw i32 %3, -1
  %11 = shl nuw i32 1, %10
  %12 = select i1 %.not, i32 0, i32 %11
  %.092 = add nsw i32 %9, %12
  %13 = icmp sgt i32 %2, 0
  br i1 %13, label %.lr.ph, label %._crit_edge

.lr.ph:                                           ; preds = %6, %.lr.ph
  %.0140 = phi ptr [ %158, %.lr.ph ], [ %0, %6 ]
  %.091139 = phi i32 [ %157, %.lr.ph ], [ 0, %6 ]
  %14 = load i16, ptr %.0140, align 2, !tbaa !37
  %15 = zext i16 %14 to i32
  %16 = mul nsw i32 %4, %15
  %17 = add nsw i32 %16, %.092
  %18 = ashr i32 %17, %3
  %19 = tail call i32 @llvm.smax.i32(i32 %18, i32 0)
  %20 = tail call i32 @llvm.umin.i32(i32 %19, i32 1023)
  %21 = trunc nuw nsw i32 %20 to i16
  store i16 %21, ptr %.0140, align 2, !tbaa !37
  %22 = getelementptr inbounds nuw i8, ptr %.0140, i64 2
  %23 = load i16, ptr %22, align 2, !tbaa !37
  %24 = zext i16 %23 to i32
  %25 = mul nsw i32 %4, %24
  %26 = add nsw i32 %25, %.092
  %27 = ashr i32 %26, %3
  %28 = tail call i32 @llvm.smax.i32(i32 %27, i32 0)
  %29 = tail call i32 @llvm.umin.i32(i32 %28, i32 1023)
  %30 = trunc nuw nsw i32 %29 to i16
  store i16 %30, ptr %22, align 2, !tbaa !37
  %31 = getelementptr inbounds nuw i8, ptr %.0140, i64 4
  %32 = load i16, ptr %31, align 2, !tbaa !37
  %33 = zext i16 %32 to i32
  %34 = mul nsw i32 %4, %33
  %35 = add nsw i32 %34, %.092
  %36 = ashr i32 %35, %3
  %37 = tail call i32 @llvm.smax.i32(i32 %36, i32 0)
  %38 = tail call i32 @llvm.umin.i32(i32 %37, i32 1023)
  %39 = trunc nuw nsw i32 %38 to i16
  store i16 %39, ptr %31, align 2, !tbaa !37
  %40 = getelementptr inbounds nuw i8, ptr %.0140, i64 6
  %41 = load i16, ptr %40, align 2, !tbaa !37
  %42 = zext i16 %41 to i32
  %43 = mul nsw i32 %4, %42
  %44 = add nsw i32 %43, %.092
  %45 = ashr i32 %44, %3
  %46 = tail call i32 @llvm.smax.i32(i32 %45, i32 0)
  %47 = tail call i32 @llvm.umin.i32(i32 %46, i32 1023)
  %48 = trunc nuw nsw i32 %47 to i16
  store i16 %48, ptr %40, align 2, !tbaa !37
  %49 = getelementptr inbounds nuw i8, ptr %.0140, i64 8
  %50 = load i16, ptr %49, align 2, !tbaa !37
  %51 = zext i16 %50 to i32
  %52 = mul nsw i32 %4, %51
  %53 = add nsw i32 %52, %.092
  %54 = ashr i32 %53, %3
  %55 = tail call i32 @llvm.smax.i32(i32 %54, i32 0)
  %56 = tail call i32 @llvm.umin.i32(i32 %55, i32 1023)
  %57 = trunc nuw nsw i32 %56 to i16
  store i16 %57, ptr %49, align 2, !tbaa !37
  %58 = getelementptr inbounds nuw i8, ptr %.0140, i64 10
  %59 = load i16, ptr %58, align 2, !tbaa !37
  %60 = zext i16 %59 to i32
  %61 = mul nsw i32 %4, %60
  %62 = add nsw i32 %61, %.092
  %63 = ashr i32 %62, %3
  %64 = tail call i32 @llvm.smax.i32(i32 %63, i32 0)
  %65 = tail call i32 @llvm.umin.i32(i32 %64, i32 1023)
  %66 = trunc nuw nsw i32 %65 to i16
  store i16 %66, ptr %58, align 2, !tbaa !37
  %67 = getelementptr inbounds nuw i8, ptr %.0140, i64 12
  %68 = load i16, ptr %67, align 2, !tbaa !37
  %69 = zext i16 %68 to i32
  %70 = mul nsw i32 %4, %69
  %71 = add nsw i32 %70, %.092
  %72 = ashr i32 %71, %3
  %73 = tail call i32 @llvm.smax.i32(i32 %72, i32 0)
  %74 = tail call i32 @llvm.umin.i32(i32 %73, i32 1023)
  %75 = trunc nuw nsw i32 %74 to i16
  store i16 %75, ptr %67, align 2, !tbaa !37
  %76 = getelementptr inbounds nuw i8, ptr %.0140, i64 14
  %77 = load i16, ptr %76, align 2, !tbaa !37
  %78 = zext i16 %77 to i32
  %79 = mul nsw i32 %4, %78
  %80 = add nsw i32 %79, %.092
  %81 = ashr i32 %80, %3
  %82 = tail call i32 @llvm.smax.i32(i32 %81, i32 0)
  %83 = tail call i32 @llvm.umin.i32(i32 %82, i32 1023)
  %84 = trunc nuw nsw i32 %83 to i16
  store i16 %84, ptr %76, align 2, !tbaa !37
  %85 = getelementptr inbounds nuw i8, ptr %.0140, i64 16
  %86 = load i16, ptr %85, align 2, !tbaa !37
  %87 = zext i16 %86 to i32
  %88 = mul nsw i32 %4, %87
  %89 = add nsw i32 %88, %.092
  %90 = ashr i32 %89, %3
  %91 = tail call i32 @llvm.smax.i32(i32 %90, i32 0)
  %92 = tail call i32 @llvm.umin.i32(i32 %91, i32 1023)
  %93 = trunc nuw nsw i32 %92 to i16
  store i16 %93, ptr %85, align 2, !tbaa !37
  %94 = getelementptr inbounds nuw i8, ptr %.0140, i64 18
  %95 = load i16, ptr %94, align 2, !tbaa !37
  %96 = zext i16 %95 to i32
  %97 = mul nsw i32 %4, %96
  %98 = add nsw i32 %97, %.092
  %99 = ashr i32 %98, %3
  %100 = tail call i32 @llvm.smax.i32(i32 %99, i32 0)
  %101 = tail call i32 @llvm.umin.i32(i32 %100, i32 1023)
  %102 = trunc nuw nsw i32 %101 to i16
  store i16 %102, ptr %94, align 2, !tbaa !37
  %103 = getelementptr inbounds nuw i8, ptr %.0140, i64 20
  %104 = load i16, ptr %103, align 2, !tbaa !37
  %105 = zext i16 %104 to i32
  %106 = mul nsw i32 %4, %105
  %107 = add nsw i32 %106, %.092
  %108 = ashr i32 %107, %3
  %109 = tail call i32 @llvm.smax.i32(i32 %108, i32 0)
  %110 = tail call i32 @llvm.umin.i32(i32 %109, i32 1023)
  %111 = trunc nuw nsw i32 %110 to i16
  store i16 %111, ptr %103, align 2, !tbaa !37
  %112 = getelementptr inbounds nuw i8, ptr %.0140, i64 22
  %113 = load i16, ptr %112, align 2, !tbaa !37
  %114 = zext i16 %113 to i32
  %115 = mul nsw i32 %4, %114
  %116 = add nsw i32 %115, %.092
  %117 = ashr i32 %116, %3
  %118 = tail call i32 @llvm.smax.i32(i32 %117, i32 0)
  %119 = tail call i32 @llvm.umin.i32(i32 %118, i32 1023)
  %120 = trunc nuw nsw i32 %119 to i16
  store i16 %120, ptr %112, align 2, !tbaa !37
  %121 = getelementptr inbounds nuw i8, ptr %.0140, i64 24
  %122 = load i16, ptr %121, align 2, !tbaa !37
  %123 = zext i16 %122 to i32
  %124 = mul nsw i32 %4, %123
  %125 = add nsw i32 %124, %.092
  %126 = ashr i32 %125, %3
  %127 = tail call i32 @llvm.smax.i32(i32 %126, i32 0)
  %128 = tail call i32 @llvm.umin.i32(i32 %127, i32 1023)
  %129 = trunc nuw nsw i32 %128 to i16
  store i16 %129, ptr %121, align 2, !tbaa !37
  %130 = getelementptr inbounds nuw i8, ptr %.0140, i64 26
  %131 = load i16, ptr %130, align 2, !tbaa !37
  %132 = zext i16 %131 to i32
  %133 = mul nsw i32 %4, %132
  %134 = add nsw i32 %133, %.092
  %135 = ashr i32 %134, %3
  %136 = tail call i32 @llvm.smax.i32(i32 %135, i32 0)
  %137 = tail call i32 @llvm.umin.i32(i32 %136, i32 1023)
  %138 = trunc nuw nsw i32 %137 to i16
  store i16 %138, ptr %130, align 2, !tbaa !37
  %139 = getelementptr inbounds nuw i8, ptr %.0140, i64 28
  %140 = load i16, ptr %139, align 2, !tbaa !37
  %141 = zext i16 %140 to i32
  %142 = mul nsw i32 %4, %141
  %143 = add nsw i32 %142, %.092
  %144 = ashr i32 %143, %3
  %145 = tail call i32 @llvm.smax.i32(i32 %144, i32 0)
  %146 = tail call i32 @llvm.umin.i32(i32 %145, i32 1023)
  %147 = trunc nuw nsw i32 %146 to i16
  store i16 %147, ptr %139, align 2, !tbaa !37
  %148 = getelementptr inbounds nuw i8, ptr %.0140, i64 30
  %149 = load i16, ptr %148, align 2, !tbaa !37
  %150 = zext i16 %149 to i32
  %151 = mul nsw i32 %4, %150
  %152 = add nsw i32 %151, %.092
  %153 = ashr i32 %152, %3
  %154 = tail call i32 @llvm.smax.i32(i32 %153, i32 0)
  %155 = tail call i32 @llvm.umin.i32(i32 %154, i32 1023)
  %156 = trunc nuw nsw i32 %155 to i16
  store i16 %156, ptr %148, align 2, !tbaa !37
  %157 = add nuw nsw i32 %.091139, 1
  %158 = getelementptr inbounds i16, ptr %.0140, i64 %7
  %exitcond.not = icmp eq i32 %157, %2
  br i1 %exitcond.not, label %._crit_edge, label %.lr.ph, !llvm.loop !59

._crit_edge:                                      ; preds = %.lr.ph, %6
  ret void
}